target datalayout = "e-m:e-p270:32:32-p271:32:32-p272:64:64-i64:64-i128:128-f80:128-n8:16:32:64-S128"
target triple = "x86_64-pc-linux-gnu"

%struct._object = type { %union.anon, ptr }
%union.anon = type { i64 }
%struct.PyDescrObject = type { %struct._object, ptr, ptr, ptr }
%struct.wrapperbase = type { ptr, i32, ptr, ptr, ptr, i32, ptr }
%struct.PyWrapperDescrObject = type { %struct.PyDescrObject, ptr, ptr }

; Function Attrs: nounwind uwtable
define internal ptr @wrapperdescr_get_doc(ptr noundef %0, ptr noundef %1) #0 {
  %3 = alloca ptr, align 8
  %4 = alloca ptr, align 8
  %5 = alloca ptr, align 8
  store ptr %0, ptr %3, align 8, !tbaa !4
  store ptr %1, ptr %4, align 8, !tbaa !9
  call void @llvm.lifetime.start.p0(i64 8, ptr %5) #6
  %6 = load ptr, ptr %3, align 8, !tbaa !4
  store ptr %6, ptr %5, align 8, !tbaa !9
  %7 = load ptr, ptr %5, align 8, !tbaa !9
  %8 = getelementptr inbounds nuw %struct.PyWrapperDescrObject, ptr %7, i32 0, i32 1
  %9 = load ptr, ptr %8, align 8, !tbaa !60
  %10 = getelementptr inbounds nuw %struct.wrapperbase, ptr %9, i32 0, i32 0
  %11 = load ptr, ptr %10, align 8, !tbaa !58
  %12 = load ptr, ptr %5, align 8, !tbaa !9
  %13 = getelementptr inbounds nuw %struct.PyWrapperDescrObject, ptr %12, i32 0, i32 1
  %14 = load ptr, ptr %13, align 8, !tbaa !60
  %15 = getelementptr inbounds nuw %struct.wrapperbase, ptr %14, i32 0, i32 4
  %16 = load ptr, ptr %15, align 8, !tbaa !171
  %17 = call ptr @_PyType_GetDocFromInternalDoc(ptr noundef %11, ptr noundef %16)
  call void @llvm.lifetime.end.p0(i64 8, ptr %5) #6
  ret ptr %17
}